target datalayout = "e-m:e-p270:32:32-p271:32:32-p272:64:64-i64:64-i128:128-f80:128-n8:16:32:64-S128"
target triple = "x86_64-pc-linux-gnu"

%struct.AVFormatContext = type { ptr, ptr, ptr, ptr, ptr, i32, i32, ptr, i32, ptr, i32, ptr, ptr, i64, i64, i64, i32, i32, i32, i64, i64, ptr, i32, i32, ptr, i32, i32, i32, i32, ptr, i64, i32, i32, %struct.AVIOInterruptCB, i32, i32, i32, i32, i64, i32, i32, i32, i32, i32, i32, i32, i32, i32, i32, i32, i32, i64, i32, i32, i32, i32, i32, ptr, ptr, ptr, ptr, i32, ptr, ptr, ptr, ptr, i32, ptr, ptr, i64, ptr, ptr, ptr, i64 }
%struct.AVIOInterruptCB = type { ptr, ptr }
%struct.AVStream = type { ptr, i32, i32, ptr, ptr, %struct.AVRational, i64, i64, i64, i32, i32, %struct.AVRational, ptr, %struct.AVRational, %struct.AVPacket, i32, %struct.AVRational, i32 }
%struct.AVPacket = type { ptr, i64, i64, ptr, i32, i32, i32, ptr, i32, i64, i64, ptr, ptr, %struct.AVRational }
%struct.AVRational = type { i32, i32 }
%struct.AVChapter = type { i64, %struct.AVRational, i64, i64, ptr }

@.str.4 = private unnamed_addr constant [9 x i8] c"[STREAM]\00", align 1
@.str.5 = private unnamed_addr constant [10 x i8] c"[CHAPTER]\00", align 1
@.str.6 = private unnamed_addr constant [16 x i8] c"TIMEBASE=%d/%d\0A\00", align 1
@.str.7 = private unnamed_addr constant [11 x i8] c"START=%ld\0A\00", align 1
@.str.8 = private unnamed_addr constant [9 x i8] c"END=%ld\0A\00", align 1

; Function Attrs: nounwind uwtable
define internal i32 @write_trailer(ptr noundef %0) #0 {
  %2 = alloca ptr, align 8
  %3 = alloca i32, align 4
  %4 = alloca ptr, align 8
  store ptr %0, ptr %2, align 8, !tbaa !4
  call void @llvm.lifetime.start.p0(i64 4, ptr %3) #3
  %5 = load ptr, ptr %2, align 8, !tbaa !4
  %6 = getelementptr inbounds nuw %struct.AVFormatContext, ptr %5, i32 0, i32 4
  %7 = load ptr, ptr %6, align 8, !tbaa !9
  %8 = load ptr, ptr %2, align 8, !tbaa !4
  %9 = getelementptr inbounds nuw %struct.AVFormatContext, ptr %8, i32 0, i32 29
  %10 = load ptr, ptr %9, align 8, !tbaa !28
  call void @write_tags(ptr noundef %7, ptr noundef %10)
  store i32 0, ptr %3, align 4, !tbaa !29
  br label %11

11:                                               ; preds = %36, %1
  %12 = load i32, ptr %3, align 4, !tbaa !29
  %13 = load ptr, ptr %2, align 8, !tbaa !4
  %14 = getelementptr inbounds nuw %struct.AVFormatContext, ptr %13, i32 0, i32 6
  %15 = load i32, ptr %14, align 4, !tbaa !30
  %16 = icmp ult i32 %12, %15
  br i1 %16, label %17, label %39

17:                                               ; preds = %11
  %18 = load ptr, ptr %2, align 8, !tbaa !4
  %19 = getelementptr inbounds nuw %struct.AVFormatContext, ptr %18, i32 0, i32 4
  %20 = load ptr, ptr %19, align 8, !tbaa !9
  call void @avio_write(ptr noundef %20, ptr noundef @.str.4, i32 noundef 8)
  %21 = load ptr, ptr %2, align 8, !tbaa !4
  %22 = getelementptr inbounds nuw %struct.AVFormatContext, ptr %21, i32 0, i32 4
  %23 = load ptr, ptr %22, align 8, !tbaa !9
  call void @avio_w8(ptr noundef %23, i32 noundef 10)
  %24 = load ptr, ptr %2, align 8, !tbaa !4
  %25 = getelementptr inbounds nuw %struct.AVFormatContext, ptr %24, i32 0, i32 4
  %26 = load ptr, ptr %25, align 8, !tbaa !9
  %27 = load ptr, ptr %2, align 8, !tbaa !4
  %28 = getelementptr inbounds nuw %struct.AVFormatContext, ptr %27, i32 0, i32 7
  %29 = load ptr, ptr %28, align 8, !tbaa !31
  %30 = load i32, ptr %3, align 4, !tbaa !29
  %31 = sext i32 %30 to i64
  %32 = getelementptr inbounds ptr, ptr %29, i64 %31
  %33 = load ptr, ptr %32, align 8, !tbaa !32
  %34 = getelementptr inbounds nuw %struct.AVStream, ptr %33, i32 0, i32 12
  %35 = load ptr, ptr %34, align 8, !tbaa !34
  call void @write_tags(ptr noundef %26, ptr noundef %35)
  br label %36

36:                                               ; preds = %17
  %37 = load i32, ptr %3, align 4, !tbaa !29
  %38 = add nsw i32 %37, 1
  store i32 %38, ptr %3, align 4, !tbaa !29
  br label %11, !llvm.loop !41

39:                                               ; preds = %11
  store i32 0, ptr %3, align 4, !tbaa !29
  br label %40

40:                                               ; preds = %92, %39
  %41 = load i32, ptr %3, align 4, !tbaa !29
  %42 = load ptr, ptr %2, align 8, !tbaa !4
  %43 = getelementptr inbounds nuw %struct.AVFormatContext, ptr %42, i32 0, i32 10
  %44 = load i32, ptr %43, align 8, !tbaa !43
  %45 = icmp ult i32 %41, %44
  br i1 %45, label %46, label %95

46:                                               ; preds = %40
  call void @llvm.lifetime.start.p0(i64 8, ptr %4) #3
  %47 = load ptr, ptr %2, align 8, !tbaa !4
  %48 = getelementptr inbounds nuw %struct.AVFormatContext, ptr %47, i32 0, i32 11
  %49 = load ptr, ptr %48, align 8, !tbaa !44
  %50 = load i32, ptr %3, align 4, !tbaa !29
  %51 = sext i32 %50 to i64
  %52 = getelementptr inbounds ptr, ptr %49, i64 %51
  %53 = load ptr, ptr %52, align 8, !tbaa !45
  store ptr %53, ptr %4, align 8, !tbaa !45
  %54 = load ptr, ptr %2, align 8, !tbaa !4
  %55 = getelementptr inbounds nuw %struct.AVFormatContext, ptr %54, i32 0, i32 4
  %56 = load ptr, ptr %55, align 8, !tbaa !9
  call void @avio_write(ptr noundef %56, ptr noundef @.str.5, i32 noundef 9)
  %57 = load ptr, ptr %2, align 8, !tbaa !4
  %58 = getelementptr inbounds nuw %struct.AVFormatContext, ptr %57, i32 0, i32 4
  %59 = load ptr, ptr %58, align 8, !tbaa !9
  call void @avio_w8(ptr noundef %59, i32 noundef 10)
  %60 = load ptr, ptr %2, align 8, !tbaa !4
  %61 = getelementptr inbounds nuw %struct.AVFormatContext, ptr %60, i32 0, i32 4
  %62 = load ptr, ptr %61, align 8, !tbaa !9
  %63 = load ptr, ptr %4, align 8, !tbaa !45
  %64 = getelementptr inbounds nuw %struct.AVChapter, ptr %63, i32 0, i32 1
  %65 = getelementptr inbounds nuw %struct.AVRational, ptr %64, i32 0, i32 0
  %66 = load i32, ptr %65, align 8, !tbaa !47
  %67 = load ptr, ptr %4, align 8, !tbaa !45
  %68 = getelementptr inbounds nuw %struct.AVChapter, ptr %67, i32 0, i32 1
  %69 = getelementptr inbounds nuw %struct.AVRational, ptr %68, i32 0, i32 1
  %70 = load i32, ptr %69, align 4, !tbaa !49
  %71 = call i32 (ptr, ptr, ...) @avio_printf(ptr noundef %62, ptr noundef @.str.6, i32 noundef %66, i32 noundef %70)
  %72 = load ptr, ptr %2, align 8, !tbaa !4
  %73 = getelementptr inbounds nuw %struct.AVFormatContext, ptr %72, i32 0, i32 4
  %74 = load ptr, ptr %73, align 8, !tbaa !9
  %75 = load ptr, ptr %4, align 8, !tbaa !45
  %76 = getelementptr inbounds nuw %struct.AVChapter, ptr %75, i32 0, i32 2
  %77 = load i64, ptr %76, align 8, !tbaa !50
  %78 = call i32 (ptr, ptr, ...) @avio_printf(ptr noundef %74, ptr noundef @.str.7, i64 noundef %77)
  %79 = load ptr, ptr %2, align 8, !tbaa !4
  %80 = getelementptr inbounds nuw %struct.AVFormatContext, ptr %79, i32 0, i32 4
  %81 = load ptr, ptr %80, align 8, !tbaa !9
  %82 = load ptr, ptr %4, align 8, !tbaa !45
  %83 = getelementptr inbounds nuw %struct.AVChapter, ptr %82, i32 0, i32 3
  %84 = load i64, ptr %83, align 8, !tbaa !51
  %85 = call i32 (ptr, ptr, ...) @avio_printf(ptr noundef %81, ptr noundef @.str.8, i64 noundef %84)
  %86 = load ptr, ptr %2, align 8, !tbaa !4
  %87 = getelementptr inbounds nuw %struct.AVFormatContext, ptr %86, i32 0, i32 4
  %88 = load ptr, ptr %87, align 8, !tbaa !9
  %89 = load ptr, ptr %4, align 8, !tbaa !45
  %90 = getelementptr inbounds nuw %struct.AVChapter, ptr %89, i32 0, i32 4
  %91 = load ptr, ptr %90, align 8, !tbaa !52
  call void @write_tags(ptr noundef %88, ptr noundef %91)
  call void @llvm.lifetime.end.p0(i64 8, ptr %4) #3
  br label %92

92:                                               ; preds = %46
  %93 = load i32, ptr %3, align 4, !tbaa !29
  %94 = add nsw i32 %93, 1
  store i32 %94, ptr %3, align 4, !tbaa !29
  br label %40, !llvm.loop !53

95:                                               ; preds = %40
  call void @llvm.lifetime.end.p0(i64 4, ptr %3) #3
  ret i32 0
}