; Function Attrs: nounwind uwtable
define internal noundef i32 @write_trailer(ptr noundef readonly captures(none) %0) #0 {
  %2 = getelementptr inbounds nuw i8, ptr %0, i64 32
  %3 = load ptr, ptr %2, align 8, !tbaa !4
  %4 = getelementptr inbounds nuw i8, ptr %0, i64 192
  %5 = load ptr, ptr %4, align 8, !tbaa !24
  tail call fastcc void @write_tags(ptr noundef %3, ptr noundef %5)
  %6 = getelementptr inbounds nuw i8, ptr %0, i64 44
  %7 = load i32, ptr %6, align 4, !tbaa !25
  %.not = icmp eq i32 %7, 0
  br i1 %.not, label %.preheader, label %.lr.ph

.lr.ph:                                           ; preds = %1
  %8 = getelementptr inbounds nuw i8, ptr %0, i64 48
  br label %12

.preheader:                                       ; preds = %12, %1
  %9 = getelementptr inbounds nuw i8, ptr %0, i64 72
  %10 = load i32, ptr %9, align 8, !tbaa !26
  %.not28 = icmp eq i32 %10, 0
  br i1 %.not28, label %._crit_edge, label %.lr.ph27

.lr.ph27:                                         ; preds = %.preheader
  %11 = getelementptr inbounds nuw i8, ptr %0, i64 80
  br label %24

12:                                               ; preds = %.lr.ph, %12
  %indvars.iv = phi i64 [ 0, %.lr.ph ], [ %indvars.iv.next, %12 ]
  %13 = load ptr, ptr %2, align 8, !tbaa !4
  tail call void @avio_write(ptr noundef %13, ptr noundef nonnull @.str.4, i32 noundef 8) #3
  %14 = load ptr, ptr %2, align 8, !tbaa !4
  tail call void @avio_w8(ptr noundef %14, i32 noundef 10) #3
  %15 = load ptr, ptr %2, align 8, !tbaa !4
  %16 = load ptr, ptr %8, align 8, !tbaa !27
  %17 = getelementptr inbounds nuw ptr, ptr %16, i64 %indvars.iv
  %18 = load ptr, ptr %17, align 8, !tbaa !28
  %19 = getelementptr inbounds nuw i8, ptr %18, i64 80
  %20 = load ptr, ptr %19, align 8, !tbaa !30
  tail call fastcc void @write_tags(ptr noundef %15, ptr noundef %20)
  %indvars.iv.next = add nuw nsw i64 %indvars.iv, 1
  %21 = load i32, ptr %6, align 4, !tbaa !25
  %22 = zext i32 %21 to i64
  %23 = icmp samesign ult i64 %indvars.iv.next, %22
  br i1 %23, label %12, label %.preheader, !llvm.loop !37

24:                                               ; preds = %.lr.ph27, %24
  %indvars.iv30 = phi i64 [ 0, %.lr.ph27 ], [ %indvars.iv.next31, %24 ]
  %25 = load ptr, ptr %11, align 8, !tbaa !39
  %26 = getelementptr inbounds nuw ptr, ptr %25, i64 %indvars.iv30
  %27 = load ptr, ptr %26, align 8, !tbaa !40
  %28 = load ptr, ptr %2, align 8, !tbaa !4
  tail call void @avio_write(ptr noundef %28, ptr noundef nonnull @.str.5, i32 noundef 9) #3
  %29 = load ptr, ptr %2, align 8, !tbaa !4
  tail call void @avio_w8(ptr noundef %29, i32 noundef 10) #3
  %30 = load ptr, ptr %2, align 8, !tbaa !4
  %31 = getelementptr inbounds nuw i8, ptr %27, i64 8
  %32 = load i32, ptr %31, align 8, !tbaa !42
  %33 = getelementptr inbounds nuw i8, ptr %27, i64 12
  %34 = load i32, ptr %33, align 4, !tbaa !44
  %35 = tail call i32 (ptr, ptr, ...) @avio_printf(ptr noundef %30, ptr noundef nonnull @.str.6, i32 noundef %32, i32 noundef %34) #3
  %36 = load ptr, ptr %2, align 8, !tbaa !4
  %37 = getelementptr inbounds nuw i8, ptr %27, i64 16
  %38 = load i64, ptr %37, align 8, !tbaa !45
  %39 = tail call i32 (ptr, ptr, ...) @avio_printf(ptr noundef %36, ptr noundef nonnull @.str.7, i64 noundef %38) #3
  %40 = load ptr, ptr %2, align 8, !tbaa !4
  %41 = getelementptr inbounds nuw i8, ptr %27, i64 24
  %42 = load i64, ptr %41, align 8, !tbaa !46
  %43 = tail call i32 (ptr, ptr, ...) @avio_printf(ptr noundef %40, ptr noundef nonnull @.str.8, i64 noundef %42) #3
  %44 = load ptr, ptr %2, align 8, !tbaa !4
  %45 = getelementptr inbounds nuw i8, ptr %27, i64 32
  %46 = load ptr, ptr %45, align 8, !tbaa !47
  tail call fastcc void @write_tags(ptr noundef %44, ptr noundef %46)
  %indvars.iv.next31 = add nuw nsw i64 %indvars.iv30, 1
  %47 = load i32, ptr %9, align 8, !tbaa !26
  %48 = zext i32 %47 to i64
  %49 = icmp samesign ult i64 %indvars.iv.next31, %48
  br i1 %49, label %24, label %._crit_edge, !llvm.loop !48

._crit_edge:                                      ; preds = %24, %.preheader
  ret i32 0
}